; Function Attrs: mustprogress nofree nounwind memory(write, argmem: readwrite) uwtable
define noundef float @_Z10rhodev_indiPiPfPA3_fS2_(i32 noundef %0, ptr noundef readonly %1, ptr nocapture noundef readonly %2, ptr nocapture noundef readonly %3, ptr nocapture noundef readonly %4) local_unnamed_addr #0 {
  %6 = icmp sgt i32 %0, 0
  br i1 %6, label %.lr.ph.i, label %_Z16calc_similar_indbiPKiPKfPA3_fS4_.exit

.lr.ph.i:                                         ; preds = %5
  %.not.i = icmp eq ptr %1, null
  %wide.trip.count114.i = zext nneg i32 %0 to i64
  br i1 %.not.i, label %.split.us.us.us.i, label %.split.us.us.i

.split.us.us.us.i:                                ; preds = %.lr.ph.i, %.split49.us.us.us.i
  %indvars.iv111.i = phi i64 [ %indvars.iv.next112.i, %.split49.us.us.us.i ], [ 0, %.lr.ph.i ]
  %.054.us.us.i = phi float [ %16, %.split49.us.us.us.i ], [ 0.000000e+00, %.lr.ph.i ]
  %.03753.us.us.i = phi float [ %19, %.split49.us.us.us.i ], [ 0.000000e+00, %.lr.ph.i ]
  %7 = getelementptr inbounds float, ptr %2, i64 %indvars.iv111.i
  %8 = load float, ptr %7, align 4
  br label %9

9:                                                ; preds = %9, %.split.us.us.us.i
  %indvars.iv107.i = phi i64 [ %indvars.iv.next108.i, %9 ], [ 0, %.split.us.us.us.i ]
  %.147.us.us.us.i = phi float [ %16, %9 ], [ %.054.us.us.i, %.split.us.us.us.i ]
  %.13846.us.us.us.i = phi float [ %19, %9 ], [ %.03753.us.us.i, %.split.us.us.us.i ]
  %10 = getelementptr inbounds [3 x float], ptr %3, i64 %indvars.iv111.i, i64 %indvars.iv107.i
  %11 = load float, ptr %10, align 4
  %12 = getelementptr inbounds [3 x float], ptr %4, i64 %indvars.iv111.i, i64 %indvars.iv107.i
  %13 = load float, ptr %12, align 4
  %14 = fsub float %11, %13
  %15 = fmul float %14, %14
  %16 = tail call float @llvm.fmuladd.f32(float %8, float %15, float %.147.us.us.us.i)
  %17 = fadd float %11, %13
  %18 = fmul float %17, %17
  %19 = tail call float @llvm.fmuladd.f32(float %8, float %18, float %.13846.us.us.us.i)
  %indvars.iv.next108.i = add nuw nsw i64 %indvars.iv107.i, 1
  %exitcond110.not.i = icmp eq i64 %indvars.iv.next108.i, 3
  br i1 %exitcond110.not.i, label %.split49.us.us.us.i, label %9, !llvm.loop !5

.split49.us.us.us.i:                              ; preds = %9
  %indvars.iv.next112.i = add nuw nsw i64 %indvars.iv111.i, 1
  %exitcond115.not.i = icmp eq i64 %indvars.iv.next112.i, %wide.trip.count114.i
  br i1 %exitcond115.not.i, label %_Z16calc_similar_indbiPKiPKfPA3_fS4_.exit, label %.split.us.us.us.i, !llvm.loop !7

.split.us.us.i:                                   ; preds = %.lr.ph.i, %.split49.us.us.i
  %indvars.iv102.i = phi i64 [ %indvars.iv.next103.i, %.split49.us.us.i ], [ 0, %.lr.ph.i ]
  %.054.us.i = phi float [ %32, %.split49.us.us.i ], [ 0.000000e+00, %.lr.ph.i ]
  %.03753.us.i = phi float [ %35, %.split49.us.us.i ], [ 0.000000e+00, %.lr.ph.i ]
  %20 = getelementptr inbounds i32, ptr %1, i64 %indvars.iv102.i
  %21 = load i32, ptr %20, align 4
  %22 = sext i32 %21 to i64
  %23 = getelementptr inbounds float, ptr %2, i64 %22
  %24 = load float, ptr %23, align 4
  br label %25

25:                                               ; preds = %25, %.split.us.us.i
  %indvars.iv98.i = phi i64 [ %indvars.iv.next99.i, %25 ], [ 0, %.split.us.us.i ]
  %.147.us.us.i = phi float [ %32, %25 ], [ %.054.us.i, %.split.us.us.i ]
  %.13846.us.us.i = phi float [ %35, %25 ], [ %.03753.us.i, %.split.us.us.i ]
  %26 = getelementptr inbounds [3 x float], ptr %3, i64 %22, i64 %indvars.iv98.i
  %27 = load float, ptr %26, align 4
  %28 = getelementptr inbounds [3 x float], ptr %4, i64 %22, i64 %indvars.iv98.i
  %29 = load float, ptr %28, align 4
  %30 = fsub float %27, %29
  %31 = fmul float %30, %30
  %32 = tail call float @llvm.fmuladd.f32(float %24, float %31, float %.147.us.us.i)
  %33 = fadd float %27, %29
  %34 = fmul float %33, %33
  %35 = tail call float @llvm.fmuladd.f32(float %24, float %34, float %.13846.us.us.i)
  %indvars.iv.next99.i = add nuw nsw i64 %indvars.iv98.i, 1
  %exitcond101.not.i = icmp eq i64 %indvars.iv.next99.i, 3
  br i1 %exitcond101.not.i, label %.split49.us.us.i, label %25, !llvm.loop !5

.split49.us.us.i:                                 ; preds = %25
  %indvars.iv.next103.i = add nuw nsw i64 %indvars.iv102.i, 1
  %exitcond106.not.i = icmp eq i64 %indvars.iv.next103.i, %wide.trip.count114.i
  br i1 %exitcond106.not.i, label %_Z16calc_similar_indbiPKiPKfPA3_fS4_.exit, label %.split.us.us.i, !llvm.loop !7

_Z16calc_similar_indbiPKiPKfPA3_fS4_.exit:        ; preds = %.split49.us.us.i, %.split49.us.us.us.i, %5
  %.037.lcssa.i = phi float [ 0.000000e+00, %5 ], [ %19, %.split49.us.us.us.i ], [ %35, %.split49.us.us.i ]
  %.0.lcssa.i = phi float [ 0.000000e+00, %5 ], [ %16, %.split49.us.us.us.i ], [ %32, %.split49.us.us.i ]
  %36 = fdiv float %.0.lcssa.i, %.037.lcssa.i
  %37 = tail call noundef float @sqrtf(float noundef %36) #15
  %38 = fmul float %37, 2.000000e+00
  ret float %38
}